target datalayout = "e-m:e-p270:32:32-p271:32:32-p272:64:64-i64:64-i128:128-f80:128-n8:16:32:64-S128"
target triple = "x86_64-pc-linux-gnu"

%class.State = type { [315 x i32], [315 x i16], i32, ptr, [2 x ptr] }

; Function Attrs: mustprogress nounwind uwtable
define hidden void @_ZN5State15_sub_Op_MoveI2FEPK4Node(ptr noundef nonnull align 8 dereferenceable(1920) %0, ptr noundef %1) #1 align 2 {
  %3 = alloca ptr, align 8
  %4 = alloca ptr, align 8
  %5 = alloca i32, align 4
  %6 = alloca i32, align 4
  %7 = alloca i32, align 4
  store ptr %0, ptr %3, align 8
  store ptr %1, ptr %4, align 8
  %8 = load ptr, ptr %3, align 8
  %9 = getelementptr inbounds %class.State, ptr %8, i32 0, i32 4
  %10 = getelementptr inbounds [2 x ptr], ptr %9, i64 0, i64 0
  %11 = load ptr, ptr %10, align 8
  %12 = icmp ne ptr %11, null
  br i1 %12, label %13, label %54

13:                                               ; preds = %2
  %14 = getelementptr inbounds %class.State, ptr %8, i32 0, i32 4
  %15 = getelementptr inbounds [2 x ptr], ptr %14, i64 0, i64 0
  %16 = load ptr, ptr %15, align 8
  %17 = getelementptr inbounds %class.State, ptr %16, i32 0, i32 1
  %18 = getelementptr inbounds [315 x i16], ptr %17, i64 0, i64 49
  %19 = load i16, ptr %18, align 2
  %20 = zext i16 %19 to i32
  %21 = and i32 %20, 1
  %22 = icmp ne i32 %21, 0
  br i1 %22, label %23, label %54

23:                                               ; preds = %13
  %24 = getelementptr inbounds %class.State, ptr %8, i32 0, i32 4
  %25 = getelementptr inbounds [2 x ptr], ptr %24, i64 0, i64 0
  %26 = load ptr, ptr %25, align 8
  %27 = getelementptr inbounds %class.State, ptr %26, i32 0, i32 0
  %28 = getelementptr inbounds [315 x i32], ptr %27, i64 0, i64 49
  %29 = load i32, ptr %28, align 4
  %30 = add i32 %29, 100
  store i32 %30, ptr %5, align 4
  %31 = load i32, ptr %5, align 4
  %32 = getelementptr inbounds %class.State, ptr %8, i32 0, i32 0
  %33 = getelementptr inbounds [315 x i32], ptr %32, i64 0, i64 78
  store i32 %31, ptr %33, align 8
  %34 = getelementptr inbounds %class.State, ptr %8, i32 0, i32 1
  %35 = getelementptr inbounds [315 x i16], ptr %34, i64 0, i64 78
  store i16 783, ptr %35, align 4
  %36 = load i32, ptr %5, align 4
  %37 = add i32 %36, 100
  %38 = getelementptr inbounds %class.State, ptr %8, i32 0, i32 0
  %39 = getelementptr inbounds [315 x i32], ptr %38, i64 0, i64 80
  store i32 %37, ptr %39, align 8
  %40 = getelementptr inbounds %class.State, ptr %8, i32 0, i32 1
  %41 = getelementptr inbounds [315 x i16], ptr %40, i64 0, i64 80
  store i16 641, ptr %41, align 4
  %42 = load i32, ptr %5, align 4
  %43 = add i32 %42, 100
  %44 = getelementptr inbounds %class.State, ptr %8, i32 0, i32 0
  %45 = getelementptr inbounds [315 x i32], ptr %44, i64 0, i64 79
  store i32 %43, ptr %45, align 4
  %46 = getelementptr inbounds %class.State, ptr %8, i32 0, i32 1
  %47 = getelementptr inbounds [315 x i16], ptr %46, i64 0, i64 79
  store i16 643, ptr %47, align 2
  %48 = load i32, ptr %5, align 4
  %49 = add i32 %48, 95
  %50 = getelementptr inbounds %class.State, ptr %8, i32 0, i32 0
  %51 = getelementptr inbounds [315 x i32], ptr %50, i64 0, i64 106
  store i32 %49, ptr %51, align 8
  %52 = getelementptr inbounds %class.State, ptr %8, i32 0, i32 1
  %53 = getelementptr inbounds [315 x i16], ptr %52, i64 0, i64 106
  store i16 637, ptr %53, align 4
  br label %54

54:                                               ; preds = %23, %13, %2
  %55 = getelementptr inbounds %class.State, ptr %8, i32 0, i32 4
  %56 = getelementptr inbounds [2 x ptr], ptr %55, i64 0, i64 0
  %57 = load ptr, ptr %56, align 8
  %58 = icmp ne ptr %57, null
  br i1 %58, label %59, label %163

59:                                               ; preds = %54
  %60 = getelementptr inbounds %class.State, ptr %8, i32 0, i32 4
  %61 = getelementptr inbounds [2 x ptr], ptr %60, i64 0, i64 0
  %62 = load ptr, ptr %61, align 8
  %63 = getelementptr inbounds %class.State, ptr %62, i32 0, i32 1
  %64 = getelementptr inbounds [315 x i16], ptr %63, i64 0, i64 49
  %65 = load i16, ptr %64, align 2
  %66 = zext i16 %65 to i32
  %67 = and i32 %66, 1
  %68 = icmp ne i32 %67, 0
  br i1 %68, label %69, label %163

69:                                               ; preds = %59
  %70 = getelementptr inbounds %class.State, ptr %8, i32 0, i32 4
  %71 = getelementptr inbounds [2 x ptr], ptr %70, i64 0, i64 0
  %72 = load ptr, ptr %71, align 8
  %73 = getelementptr inbounds %class.State, ptr %72, i32 0, i32 0
  %74 = getelementptr inbounds [315 x i32], ptr %73, i64 0, i64 49
  %75 = load i32, ptr %74, align 4
  %76 = add i32 %75, 100
  store i32 %76, ptr %6, align 4
  %77 = getelementptr inbounds %class.State, ptr %8, i32 0, i32 1
  %78 = getelementptr inbounds [315 x i16], ptr %77, i64 0, i64 106
  %79 = load i16, ptr %78, align 4
  %80 = zext i16 %79 to i32
  %81 = and i32 %80, 1
  %82 = icmp eq i32 %81, 0
  br i1 %82, label %89, label %83

83:                                               ; preds = %69
  %84 = getelementptr inbounds %class.State, ptr %8, i32 0, i32 0
  %85 = getelementptr inbounds [315 x i32], ptr %84, i64 0, i64 106
  %86 = load i32, ptr %85, align 8
  %87 = load i32, ptr %6, align 4
  %88 = icmp ugt i32 %86, %87
  br i1 %88, label %89, label %95

89:                                               ; preds = %83, %69
  %90 = load i32, ptr %6, align 4
  %91 = getelementptr inbounds %class.State, ptr %8, i32 0, i32 0
  %92 = getelementptr inbounds [315 x i32], ptr %91, i64 0, i64 106
  store i32 %90, ptr %92, align 8
  %93 = getelementptr inbounds %class.State, ptr %8, i32 0, i32 1
  %94 = getelementptr inbounds [315 x i16], ptr %93, i64 0, i64 106
  store i16 2021, ptr %94, align 4
  br label %95

95:                                               ; preds = %89, %83
  %96 = getelementptr inbounds %class.State, ptr %8, i32 0, i32 1
  %97 = getelementptr inbounds [315 x i16], ptr %96, i64 0, i64 78
  %98 = load i16, ptr %97, align 4
  %99 = zext i16 %98 to i32
  %100 = and i32 %99, 1
  %101 = icmp eq i32 %100, 0
  br i1 %101, label %109, label %102

102:                                              ; preds = %95
  %103 = getelementptr inbounds %class.State, ptr %8, i32 0, i32 0
  %104 = getelementptr inbounds [315 x i32], ptr %103, i64 0, i64 78
  %105 = load i32, ptr %104, align 8
  %106 = load i32, ptr %6, align 4
  %107 = add i32 %106, 125
  %108 = icmp ugt i32 %105, %107
  br i1 %108, label %109, label %116

109:                                              ; preds = %102, %95
  %110 = load i32, ptr %6, align 4
  %111 = add i32 %110, 125
  %112 = getelementptr inbounds %class.State, ptr %8, i32 0, i32 0
  %113 = getelementptr inbounds [315 x i32], ptr %112, i64 0, i64 78
  store i32 %111, ptr %113, align 8
  %114 = getelementptr inbounds %class.State, ptr %8, i32 0, i32 1
  %115 = getelementptr inbounds [315 x i16], ptr %114, i64 0, i64 78
  store i16 727, ptr %115, align 4
  br label %116

116:                                              ; preds = %109, %102
  %117 = getelementptr inbounds %class.State, ptr %8, i32 0, i32 1
  %118 = getelementptr inbounds [315 x i16], ptr %117, i64 0, i64 80
  %119 = load i16, ptr %118, align 4
  %120 = zext i16 %119 to i32
  %121 = and i32 %120, 1
  %122 = icmp eq i32 %121, 0
  br i1 %122, label %131, label %123

123:                                              ; preds = %116
  %124 = getelementptr inbounds %class.State, ptr %8, i32 0, i32 0
  %125 = getelementptr inbounds [315 x i32], ptr %124, i64 0, i64 80
  %126 = load i32, ptr %125, align 8
  %127 = load i32, ptr %6, align 4
  %128 = add i32 %127, 125
  %129 = add i32 %128, 100
  %130 = icmp ugt i32 %126, %129
  br i1 %130, label %131, label %139

131:                                              ; preds = %123, %116
  %132 = load i32, ptr %6, align 4
  %133 = add i32 %132, 125
  %134 = add i32 %133, 100
  %135 = getelementptr inbounds %class.State, ptr %8, i32 0, i32 0
  %136 = getelementptr inbounds [315 x i32], ptr %135, i64 0, i64 80
  store i32 %134, ptr %136, align 8
  %137 = getelementptr inbounds %class.State, ptr %8, i32 0, i32 1
  %138 = getelementptr inbounds [315 x i16], ptr %137, i64 0, i64 80
  store i16 641, ptr %138, align 4
  br label %139

139:                                              ; preds = %131, %123
  %140 = getelementptr inbounds %class.State, ptr %8, i32 0, i32 1
  %141 = getelementptr inbounds [315 x i16], ptr %140, i64 0, i64 79
  %142 = load i16, ptr %141, align 2
  %143 = zext i16 %142 to i32
  %144 = and i32 %143, 1
  %145 = icmp eq i32 %144, 0
  br i1 %145, label %154, label %146

146:                                              ; preds = %139
  %147 = getelementptr inbounds %class.State, ptr %8, i32 0, i32 0
  %148 = getelementptr inbounds [315 x i32], ptr %147, i64 0, i64 79
  %149 = load i32, ptr %148, align 4
  %150 = load i32, ptr %6, align 4
  %151 = add i32 %150, 125
  %152 = add i32 %151, 100
  %153 = icmp ugt i32 %149, %152
  br i1 %153, label %154, label %162

154:                                              ; preds = %146, %139
  %155 = load i32, ptr %6, align 4
  %156 = add i32 %155, 125
  %157 = add i32 %156, 100
  %158 = getelementptr inbounds %class.State, ptr %8, i32 0, i32 0
  %159 = getelementptr inbounds [315 x i32], ptr %158, i64 0, i64 79
  store i32 %157, ptr %159, align 4
  %160 = getelementptr inbounds %class.State, ptr %8, i32 0, i32 1
  %161 = getelementptr inbounds [315 x i16], ptr %160, i64 0, i64 79
  store i16 643, ptr %161, align 2
  br label %162

162:                                              ; preds = %154, %146
  br label %163

163:                                              ; preds = %162, %59, %54
  %164 = getelementptr inbounds %class.State, ptr %8, i32 0, i32 4
  %165 = getelementptr inbounds [2 x ptr], ptr %164, i64 0, i64 0
  %166 = load ptr, ptr %165, align 8
  %167 = icmp ne ptr %166, null
  br i1 %167, label %168, label %268

168:                                              ; preds = %163
  %169 = getelementptr inbounds %class.State, ptr %8, i32 0, i32 4
  %170 = getelementptr inbounds [2 x ptr], ptr %169, i64 0, i64 0
  %171 = load ptr, ptr %170, align 8
  %172 = getelementptr inbounds %class.State, ptr %171, i32 0, i32 1
  %173 = getelementptr inbounds [315 x i16], ptr %172, i64 0, i64 105
  %174 = load i16, ptr %173, align 2
  %175 = zext i16 %174 to i32
  %176 = and i32 %175, 1
  %177 = icmp ne i32 %176, 0
  br i1 %177, label %178, label %268

178:                                              ; preds = %168
  %179 = getelementptr inbounds %class.State, ptr %8, i32 0, i32 4
  %180 = getelementptr inbounds [2 x ptr], ptr %179, i64 0, i64 0
  %181 = load ptr, ptr %180, align 8
  %182 = getelementptr inbounds %class.State, ptr %181, i32 0, i32 0
  %183 = getelementptr inbounds [315 x i32], ptr %182, i64 0, i64 105
  %184 = load i32, ptr %183, align 4
  %185 = add i32 %184, 125
  store i32 %185, ptr %7, align 4
  %186 = getelementptr inbounds %class.State, ptr %8, i32 0, i32 1
  %187 = getelementptr inbounds [315 x i16], ptr %186, i64 0, i64 78
  %188 = load i16, ptr %187, align 4
  %189 = zext i16 %188 to i32
  %190 = and i32 %189, 1
  %191 = icmp eq i32 %190, 0
  br i1 %191, label %198, label %192

192:                                              ; preds = %178
  %193 = getelementptr inbounds %class.State, ptr %8, i32 0, i32 0
  %194 = getelementptr inbounds [315 x i32], ptr %193, i64 0, i64 78
  %195 = load i32, ptr %194, align 8
  %196 = load i32, ptr %7, align 4
  %197 = icmp ugt i32 %195, %196
  br i1 %197, label %198, label %204

198:                                              ; preds = %192, %178
  %199 = load i32, ptr %7, align 4
  %200 = getelementptr inbounds %class.State, ptr %8, i32 0, i32 0
  %201 = getelementptr inbounds [315 x i32], ptr %200, i64 0, i64 78
  store i32 %199, ptr %201, align 8
  %202 = getelementptr inbounds %class.State, ptr %8, i32 0, i32 1
  %203 = getelementptr inbounds [315 x i16], ptr %202, i64 0, i64 78
  store i16 771, ptr %203, align 4
  br label %204

204:                                              ; preds = %198, %192
  %205 = getelementptr inbounds %class.State, ptr %8, i32 0, i32 1
  %206 = getelementptr inbounds [315 x i16], ptr %205, i64 0, i64 80
  %207 = load i16, ptr %206, align 4
  %208 = zext i16 %207 to i32
  %209 = and i32 %208, 1
  %210 = icmp eq i32 %209, 0
  br i1 %210, label %218, label %211

211:                                              ; preds = %204
  %212 = getelementptr inbounds %class.State, ptr %8, i32 0, i32 0
  %213 = getelementptr inbounds [315 x i32], ptr %212, i64 0, i64 80
  %214 = load i32, ptr %213, align 8
  %215 = load i32, ptr %7, align 4
  %216 = add i32 %215, 100
  %217 = icmp ugt i32 %214, %216
  br i1 %217, label %218, label %225

218:                                              ; preds = %211, %204
  %219 = load i32, ptr %7, align 4
  %220 = add i32 %219, 100
  %221 = getelementptr inbounds %class.State, ptr %8, i32 0, i32 0
  %222 = getelementptr inbounds [315 x i32], ptr %221, i64 0, i64 80
  store i32 %220, ptr %222, align 8
  %223 = getelementptr inbounds %class.State, ptr %8, i32 0, i32 1
  %224 = getelementptr inbounds [315 x i16], ptr %223, i64 0, i64 80
  store i16 641, ptr %224, align 4
  br label %225

225:                                              ; preds = %218, %211
  %226 = getelementptr inbounds %class.State, ptr %8, i32 0, i32 1
  %227 = getelementptr inbounds [315 x i16], ptr %226, i64 0, i64 79
  %228 = load i16, ptr %227, align 2
  %229 = zext i16 %228 to i32
  %230 = and i32 %229, 1
  %231 = icmp eq i32 %230, 0
  br i1 %231, label %239, label %232

232:                                              ; preds = %225
  %233 = getelementptr inbounds %class.State, ptr %8, i32 0, i32 0
  %234 = getelementptr inbounds [315 x i32], ptr %233, i64 0, i64 79
  %235 = load i32, ptr %234, align 4
  %236 = load i32, ptr %7, align 4
  %237 = add i32 %236, 100
  %238 = icmp ugt i32 %235, %237
  br i1 %238, label %239, label %246

239:                                              ; preds = %232, %225
  %240 = load i32, ptr %7, align 4
  %241 = add i32 %240, 100
  %242 = getelementptr inbounds %class.State, ptr %8, i32 0, i32 0
  %243 = getelementptr inbounds [315 x i32], ptr %242, i64 0, i64 79
  store i32 %241, ptr %243, align 4
  %244 = getelementptr inbounds %class.State, ptr %8, i32 0, i32 1
  %245 = getelementptr inbounds [315 x i16], ptr %244, i64 0, i64 79
  store i16 643, ptr %245, align 2
  br label %246

246:                                              ; preds = %239, %232
  %247 = getelementptr inbounds %class.State, ptr %8, i32 0, i32 1
  %248 = getelementptr inbounds [315 x i16], ptr %247, i64 0, i64 106
  %249 = load i16, ptr %248, align 4
  %250 = zext i16 %249 to i32
  %251 = and i32 %250, 1
  %252 = icmp eq i32 %251, 0
  br i1 %252, label %260, label %253

253:                                              ; preds = %246
  %254 = getelementptr inbounds %class.State, ptr %8, i32 0, i32 0
  %255 = getelementptr inbounds [315 x i32], ptr %254, i64 0, i64 106
  %256 = load i32, ptr %255, align 8
  %257 = load i32, ptr %7, align 4
  %258 = add i32 %257, 95
  %259 = icmp ugt i32 %256, %258
  br i1 %259, label %260, label %267

260:                                              ; preds = %253, %246
  %261 = load i32, ptr %7, align 4
  %262 = add i32 %261, 95
  %263 = getelementptr inbounds %class.State, ptr %8, i32 0, i32 0
  %264 = getelementptr inbounds [315 x i32], ptr %263, i64 0, i64 106
  store i32 %262, ptr %264, align 8
  %265 = getelementptr inbounds %class.State, ptr %8, i32 0, i32 1
  %266 = getelementptr inbounds [315 x i16], ptr %265, i64 0, i64 106
  store i16 637, ptr %266, align 4
  br label %267

267:                                              ; preds = %260, %253
  br label %268

268:                                              ; preds = %267, %168, %163
  ret void
}