; Function Attrs: mustprogress nofree norecurse nosync nounwind willreturn memory(read, argmem: readwrite, inaccessiblemem: none) uwtable
define hidden void @_ZN5State15_sub_Op_MoveI2FEPK4Node(ptr nocapture noundef nonnull align 8 dereferenceable(1920) %0, ptr nocapture readnone %1) local_unnamed_addr #1 align 2 {
  %3 = getelementptr inbounds i8, ptr %0, i64 1904
  %4 = load ptr, ptr %3, align 8
  %.not = icmp eq ptr %4, null
  br i1 %.not, label %123, label %5

5:                                                ; preds = %2
  %6 = getelementptr inbounds i8, ptr %4, i64 1358
  %7 = load i16, ptr %6, align 2
  %8 = and i16 %7, 1
  %.not22 = icmp eq i16 %8, 0
  br i1 %.not22, label %.thread, label %9

9:                                                ; preds = %5
  %10 = getelementptr inbounds i8, ptr %4, i64 196
  %11 = load i32, ptr %10, align 4
  %12 = add i32 %11, 100
  %13 = getelementptr inbounds i8, ptr %0, i64 312
  store i32 %12, ptr %13, align 8
  %14 = getelementptr inbounds i8, ptr %0, i64 1416
  store i16 783, ptr %14, align 8
  %15 = add i32 %11, 200
  %16 = getelementptr inbounds i8, ptr %0, i64 320
  store i32 %15, ptr %16, align 8
  %17 = getelementptr inbounds i8, ptr %0, i64 1420
  store i16 641, ptr %17, align 4
  %18 = getelementptr inbounds i8, ptr %0, i64 316
  store i32 %15, ptr %18, align 4
  %19 = getelementptr inbounds i8, ptr %0, i64 1418
  store i16 643, ptr %19, align 2
  %20 = add i32 %11, 195
  %21 = getelementptr inbounds i8, ptr %0, i64 424
  store i32 %20, ptr %21, align 8
  %22 = getelementptr inbounds i8, ptr %0, i64 1472
  store i16 637, ptr %22, align 8
  %.pre = load i16, ptr %6, align 2
  %.pre34 = and i16 %.pre, 1
  %23 = icmp eq i16 %.pre34, 0
  br i1 %23, label %.thread, label %24

24:                                               ; preds = %9
  %25 = getelementptr inbounds i8, ptr %4, i64 196
  %26 = load i32, ptr %25, align 4
  %27 = add i32 %26, 100
  %28 = getelementptr inbounds i8, ptr %0, i64 1472
  %29 = load i16, ptr %28, align 8
  %30 = and i16 %29, 1
  %31 = icmp eq i16 %30, 0
  %32 = getelementptr inbounds i8, ptr %0, i64 424
  %33 = load i32, ptr %32, align 8
  %34 = icmp ugt i32 %33, %27
  %or.cond = select i1 %31, i1 true, i1 %34
  br i1 %or.cond, label %35, label %36

35:                                               ; preds = %24
  store i32 %27, ptr %32, align 8
  store i16 2021, ptr %28, align 8
  br label %36

36:                                               ; preds = %24, %35
  %37 = getelementptr inbounds i8, ptr %0, i64 1416
  %38 = load i16, ptr %37, align 8
  %39 = and i16 %38, 1
  %40 = icmp eq i16 %39, 0
  br i1 %40, label %._crit_edge36, label %41

._crit_edge36:                                    ; preds = %36
  %.pre46 = add i32 %26, 225
  br label %46

41:                                               ; preds = %36
  %42 = getelementptr inbounds i8, ptr %0, i64 312
  %43 = load i32, ptr %42, align 8
  %44 = add i32 %26, 225
  %45 = icmp ugt i32 %43, %44
  br i1 %45, label %46, label %48

46:                                               ; preds = %._crit_edge36, %41
  %.pre-phi47 = phi i32 [ %.pre46, %._crit_edge36 ], [ %44, %41 ]
  %47 = getelementptr inbounds i8, ptr %0, i64 312
  store i32 %.pre-phi47, ptr %47, align 8
  store i16 727, ptr %37, align 8
  br label %48

48:                                               ; preds = %46, %41
  %49 = getelementptr inbounds i8, ptr %0, i64 1420
  %50 = load i16, ptr %49, align 4
  %51 = and i16 %50, 1
  %52 = icmp eq i16 %51, 0
  br i1 %52, label %._crit_edge35, label %53

._crit_edge35:                                    ; preds = %48
  %.pre48 = add i32 %26, 325
  br label %58

53:                                               ; preds = %48
  %54 = getelementptr inbounds i8, ptr %0, i64 320
  %55 = load i32, ptr %54, align 8
  %56 = add i32 %26, 325
  %57 = icmp ugt i32 %55, %56
  br i1 %57, label %58, label %60

58:                                               ; preds = %._crit_edge35, %53
  %.pre-phi49 = phi i32 [ %.pre48, %._crit_edge35 ], [ %56, %53 ]
  %59 = getelementptr inbounds i8, ptr %0, i64 320
  store i32 %.pre-phi49, ptr %59, align 8
  store i16 641, ptr %49, align 4
  br label %60

60:                                               ; preds = %58, %53
  %61 = getelementptr inbounds i8, ptr %0, i64 1418
  %62 = load i16, ptr %61, align 2
  %63 = and i16 %62, 1
  %64 = icmp eq i16 %63, 0
  br i1 %64, label %._crit_edge, label %65

._crit_edge:                                      ; preds = %60
  %.pre50 = add i32 %26, 325
  br label %70

65:                                               ; preds = %60
  %66 = getelementptr inbounds i8, ptr %0, i64 316
  %67 = load i32, ptr %66, align 4
  %68 = add i32 %26, 325
  %69 = icmp ugt i32 %67, %68
  br i1 %69, label %70, label %.thread

70:                                               ; preds = %._crit_edge, %65
  %.pre-phi51 = phi i32 [ %.pre50, %._crit_edge ], [ %68, %65 ]
  %71 = getelementptr inbounds i8, ptr %0, i64 316
  store i32 %.pre-phi51, ptr %71, align 4
  store i16 643, ptr %61, align 2
  br label %.thread

.thread:                                          ; preds = %5, %65, %70, %9
  %72 = getelementptr inbounds i8, ptr %4, i64 1470
  %73 = load i16, ptr %72, align 2
  %74 = and i16 %73, 1
  %.not26 = icmp eq i16 %74, 0
  br i1 %.not26, label %123, label %75

75:                                               ; preds = %.thread
  %76 = getelementptr inbounds i8, ptr %4, i64 420
  %77 = load i32, ptr %76, align 4
  %78 = add i32 %77, 125
  %79 = getelementptr inbounds i8, ptr %0, i64 1416
  %80 = load i16, ptr %79, align 8
  %81 = and i16 %80, 1
  %82 = icmp eq i16 %81, 0
  %83 = getelementptr inbounds i8, ptr %0, i64 312
  %84 = load i32, ptr %83, align 8
  %85 = icmp ugt i32 %84, %78
  %or.cond31 = select i1 %82, i1 true, i1 %85
  br i1 %or.cond31, label %86, label %87

86:                                               ; preds = %75
  store i32 %78, ptr %83, align 8
  store i16 771, ptr %79, align 8
  br label %87

87:                                               ; preds = %75, %86
  %88 = getelementptr inbounds i8, ptr %0, i64 1420
  %89 = load i16, ptr %88, align 4
  %90 = and i16 %89, 1
  %91 = icmp eq i16 %90, 0
  br i1 %91, label %._crit_edge39, label %92

._crit_edge39:                                    ; preds = %87
  %.pre40 = add i32 %77, 225
  br label %97

92:                                               ; preds = %87
  %93 = getelementptr inbounds i8, ptr %0, i64 320
  %94 = load i32, ptr %93, align 8
  %95 = add i32 %77, 225
  %96 = icmp ugt i32 %94, %95
  br i1 %96, label %97, label %99

97:                                               ; preds = %._crit_edge39, %92
  %.pre-phi41 = phi i32 [ %.pre40, %._crit_edge39 ], [ %95, %92 ]
  %98 = getelementptr inbounds i8, ptr %0, i64 320
  store i32 %.pre-phi41, ptr %98, align 8
  store i16 641, ptr %88, align 4
  br label %99

99:                                               ; preds = %97, %92
  %100 = getelementptr inbounds i8, ptr %0, i64 1418
  %101 = load i16, ptr %100, align 2
  %102 = and i16 %101, 1
  %103 = icmp eq i16 %102, 0
  br i1 %103, label %._crit_edge38, label %104

._crit_edge38:                                    ; preds = %99
  %.pre42 = add i32 %77, 225
  br label %109

104:                                              ; preds = %99
  %105 = getelementptr inbounds i8, ptr %0, i64 316
  %106 = load i32, ptr %105, align 4
  %107 = add i32 %77, 225
  %108 = icmp ugt i32 %106, %107
  br i1 %108, label %109, label %111

109:                                              ; preds = %._crit_edge38, %104
  %.pre-phi43 = phi i32 [ %.pre42, %._crit_edge38 ], [ %107, %104 ]
  %110 = getelementptr inbounds i8, ptr %0, i64 316
  store i32 %.pre-phi43, ptr %110, align 4
  store i16 643, ptr %100, align 2
  br label %111

111:                                              ; preds = %109, %104
  %112 = getelementptr inbounds i8, ptr %0, i64 1472
  %113 = load i16, ptr %112, align 8
  %114 = and i16 %113, 1
  %115 = icmp eq i16 %114, 0
  br i1 %115, label %._crit_edge37, label %116

._crit_edge37:                                    ; preds = %111
  %.pre44 = add i32 %77, 220
  br label %121

116:                                              ; preds = %111
  %117 = getelementptr inbounds i8, ptr %0, i64 424
  %118 = load i32, ptr %117, align 8
  %119 = add i32 %77, 220
  %120 = icmp ugt i32 %118, %119
  br i1 %120, label %121, label %123

121:                                              ; preds = %._crit_edge37, %116
  %.pre-phi45 = phi i32 [ %.pre44, %._crit_edge37 ], [ %119, %116 ]
  %122 = getelementptr inbounds i8, ptr %0, i64 424
  store i32 %.pre-phi45, ptr %122, align 8
  store i16 637, ptr %112, align 8
  br label %123

123:                                              ; preds = %2, %116, %121, %.thread
  ret void
}